target datalayout = "e-m:e-p270:32:32-p271:32:32-p272:64:64-i64:64-i128:128-f80:128-n8:16:32:64-S128"
target triple = "x86_64-pc-linux-gnu"

%struct.EState = type { i32, i32, ptr, ptr, ptr, i32, ptr, ptr, ptr, ptr, ptr, ptr, ptr, ptr, ptr, ptr, i32, ptr, ptr, ptr, ptr, ptr, ptr, ptr, ptr, ptr, ptr, i64, i64, i32, i32, i8, ptr, ptr, ptr, ptr, ptr, i8, i32, i32, ptr, i32, ptr, ptr, ptr, ptr }

@.str.1 = private unnamed_addr constant [11 x i8] c"execMain.c\00", align 1
@.str.31 = private unnamed_addr constant [51 x i8] c"failed to find ExecRowMark for rangetable index %u\00", align 1
@__func__.ExecFindRowMark = private unnamed_addr constant [16 x i8] c"ExecFindRowMark\00", align 1

; Function Attrs: nounwind uwtable
define dso_local ptr @ExecFindRowMark(ptr noundef %0, i32 noundef %1, i1 noundef zeroext %2) #0 {
  %4 = alloca ptr, align 8
  %5 = alloca ptr, align 8
  %6 = alloca i32, align 4
  %7 = alloca i8, align 1
  %8 = alloca ptr, align 8
  %9 = alloca i32, align 4
  store ptr %0, ptr %5, align 8
  store i32 %1, ptr %6, align 4
  %10 = zext i1 %2 to i8
  store i8 %10, ptr %7, align 1
  %11 = load i32, ptr %6, align 4
  %12 = icmp ugt i32 %11, 0
  br i1 %12, label %13, label %41

13:                                               ; preds = %3
  %14 = load i32, ptr %6, align 4
  %15 = load ptr, ptr %5, align 8
  %16 = getelementptr inbounds nuw %struct.EState, ptr %15, i32 0, i32 5
  %17 = load i32, ptr %16, align 8
  %18 = icmp ule i32 %14, %17
  br i1 %18, label %19, label %41

19:                                               ; preds = %13
  %20 = load ptr, ptr %5, align 8
  %21 = getelementptr inbounds nuw %struct.EState, ptr %20, i32 0, i32 7
  %22 = load ptr, ptr %21, align 8
  %23 = icmp ne ptr %22, null
  br i1 %23, label %24, label %41

24:                                               ; preds = %19
  call void @llvm.lifetime.start.p0(i64 8, ptr %8) #9
  %25 = load ptr, ptr %5, align 8
  %26 = getelementptr inbounds nuw %struct.EState, ptr %25, i32 0, i32 7
  %27 = load ptr, ptr %26, align 8
  %28 = load i32, ptr %6, align 4
  %29 = sub i32 %28, 1
  %30 = zext i32 %29 to i64
  %31 = getelementptr inbounds nuw ptr, ptr %27, i64 %30
  %32 = load ptr, ptr %31, align 8
  store ptr %32, ptr %8, align 8
  %33 = load ptr, ptr %8, align 8
  %34 = icmp ne ptr %33, null
  br i1 %34, label %35, label %37

35:                                               ; preds = %24
  %36 = load ptr, ptr %8, align 8
  store ptr %36, ptr %4, align 8
  store i32 1, ptr %9, align 4
  br label %38

37:                                               ; preds = %24
  store i32 0, ptr %9, align 4
  br label %38

38:                                               ; preds = %37, %35
  call void @llvm.lifetime.end.p0(i64 8, ptr %8) #9
  %39 = load i32, ptr %9, align 4
  switch i32 %39, label %58 [
    i32 0, label %40
    i32 1, label %56
  ]

40:                                               ; preds = %38
  br label %41

41:                                               ; preds = %40, %19, %13, %3
  %42 = load i8, ptr %7, align 1, !range !4, !noundef !5
  %43 = trunc i8 %42 to i1
  br i1 %43, label %55, label %44

44:                                               ; preds = %41
  br label %45

45:                                               ; preds = %44
  br i1 true, label %46, label %48

46:                                               ; preds = %45
  %47 = call zeroext i1 @errstart_cold(i32 noundef 21, ptr noundef null) #10
  br i1 %47, label %50, label %53

48:                                               ; preds = %45
  %49 = call zeroext i1 @errstart(i32 noundef 21, ptr noundef null)
  br i1 %49, label %50, label %53

50:                                               ; preds = %48, %46
  %51 = load i32, ptr %6, align 4
  %52 = call i32 (ptr, ...) @errmsg_internal(ptr noundef @.str.31, i32 noundef %51)
  call void @errfinish(ptr noundef @.str.1, i32 noundef 2424, ptr noundef @__func__.ExecFindRowMark)
  br label %53

53:                                               ; preds = %50, %48, %46
  unreachable

54:                                               ; No predecessors!
  br label %55

55:                                               ; preds = %54, %41
  store ptr null, ptr %4, align 8
  br label %56

56:                                               ; preds = %55, %38
  %57 = load ptr, ptr %4, align 8
  ret ptr %57

58:                                               ; preds = %38
  unreachable
}