; Function Attrs: nounwind uwtable
define dso_local ptr @ExecFindRowMark(ptr noundef readonly captures(none) %0, i32 noundef %1, i1 noundef zeroext %2) local_unnamed_addr #0 {
  %.not = icmp eq i32 %1, 0
  br i1 %.not, label %15, label %4

4:                                                ; preds = %3
  %5 = getelementptr inbounds nuw i8, ptr %0, i64 32
  %6 = load i32, ptr %5, align 8
  %.not14 = icmp ugt i32 %1, %6
  br i1 %.not14, label %15, label %7

7:                                                ; preds = %4
  %8 = getelementptr inbounds nuw i8, ptr %0, i64 48
  %9 = load ptr, ptr %8, align 8
  %.not15 = icmp eq ptr %9, null
  br i1 %.not15, label %15, label %10

10:                                               ; preds = %7
  %11 = add i32 %1, -1
  %12 = zext i32 %11 to i64
  %13 = getelementptr inbounds nuw ptr, ptr %9, i64 %12
  %14 = load ptr, ptr %13, align 8
  %.not16.not = icmp ne ptr %14, null
  %brmerge = or i1 %2, %.not16.not
  br i1 %brmerge, label %19, label %16

15:                                               ; preds = %7, %4, %3
  br i1 %2, label %19, label %16

16:                                               ; preds = %10, %15
  %17 = tail call zeroext i1 @errstart_cold(i32 noundef 21, ptr noundef null) #10
  tail call void @llvm.assume(i1 %17)
  %18 = tail call i32 (ptr, ...) @errmsg_internal(ptr noundef nonnull @.str.31, i32 noundef %1) #9
  tail call void @errfinish(ptr noundef nonnull @.str.1, i32 noundef 2424, ptr noundef nonnull @__func__.ExecFindRowMark) #9
  unreachable

19:                                               ; preds = %10, %15
  %.1 = phi ptr [ %14, %10 ], [ null, %15 ]
  ret ptr %.1
}